target datalayout = "e-m:e-p270:32:32-p271:32:32-p272:64:64-i64:64-i128:128-f80:128-n8:16:32:64-S128"
target triple = "x86_64-pc-linux-gnu"

@hf_mysql_exec_field_hour = internal global i32 0, align 4
@hf_mysql_exec_field_minute = internal global i32 0, align 4
@hf_mysql_exec_field_second = internal global i32 0, align 4
@hf_mysql_exec_field_second_b = internal global i32 0, align 4
@hf_mysql_exec_field_time_length = internal global i32 0, align 4
@hf_mysql_exec_field_time_sign = internal global i32 0, align 4
@hf_mysql_exec_field_time_days = internal global i32 0, align 4

; Function Attrs: null_pointer_is_valid sspstrong uwtable
define internal void @mysql_dissect_exec_time(ptr noundef %0, ptr noundef %1, ptr noundef %2, ptr noundef %3, i32 noundef %4) #0 {
  %6 = alloca ptr, align 8
  %7 = alloca ptr, align 8
  %8 = alloca ptr, align 8
  %9 = alloca ptr, align 8
  %10 = alloca i32, align 4
  %11 = alloca i8, align 1
  store ptr %0, ptr %6, align 8
  store ptr %1, ptr %7, align 8
  store ptr %2, ptr %8, align 8
  store ptr %3, ptr %9, align 8
  store i32 %4, ptr %10, align 4
  call void @llvm.lifetime.start.p0(i64 1, ptr %11) #11
  %12 = load ptr, ptr %6, align 8
  %13 = load ptr, ptr %8, align 8
  %14 = load i32, ptr %13, align 4
  %15 = call zeroext i8 @tvb_get_uint8(ptr noundef %12, i32 noundef %14)
  store i8 %15, ptr %11, align 1
  %16 = load ptr, ptr %9, align 8
  %17 = load i32, ptr @hf_mysql_exec_field_time_length, align 4
  %18 = load ptr, ptr %6, align 8
  %19 = load ptr, ptr %8, align 8
  %20 = load i32, ptr %19, align 4
  %21 = call ptr @proto_tree_add_item(ptr noundef %16, i32 noundef %17, ptr noundef %18, i32 noundef %20, i32 noundef 1, i32 noundef 0)
  %22 = load ptr, ptr %8, align 8
  %23 = load i32, ptr %22, align 4
  %24 = add i32 %23, 1
  store i32 %24, ptr %22, align 4
  %25 = load i8, ptr %11, align 1
  %26 = zext i8 %25 to i32
  %27 = icmp sge i32 %26, 1
  br i1 %27, label %28, label %35

28:                                               ; preds = %5
  %29 = load ptr, ptr %9, align 8
  %30 = load i32, ptr @hf_mysql_exec_field_time_sign, align 4
  %31 = load ptr, ptr %6, align 8
  %32 = load ptr, ptr %8, align 8
  %33 = load i32, ptr %32, align 4
  %34 = call ptr @proto_tree_add_item(ptr noundef %29, i32 noundef %30, ptr noundef %31, i32 noundef %33, i32 noundef 1, i32 noundef 0)
  br label %35

35:                                               ; preds = %28, %5
  %36 = load i8, ptr %11, align 1
  %37 = zext i8 %36 to i32
  %38 = icmp sge i32 %37, 5
  br i1 %38, label %39, label %47

39:                                               ; preds = %35
  %40 = load ptr, ptr %9, align 8
  %41 = load i32, ptr @hf_mysql_exec_field_time_days, align 4
  %42 = load ptr, ptr %6, align 8
  %43 = load ptr, ptr %8, align 8
  %44 = load i32, ptr %43, align 4
  %45 = add i32 %44, 1
  %46 = call ptr @proto_tree_add_item(ptr noundef %40, i32 noundef %41, ptr noundef %42, i32 noundef %45, i32 noundef 4, i32 noundef -2147483648)
  br label %47

47:                                               ; preds = %39, %35
  %48 = load i8, ptr %11, align 1
  %49 = zext i8 %48 to i32
  %50 = icmp sge i32 %49, 8
  br i1 %50, label %51, label %73

51:                                               ; preds = %47
  %52 = load ptr, ptr %9, align 8
  %53 = load i32, ptr @hf_mysql_exec_field_hour, align 4
  %54 = load ptr, ptr %6, align 8
  %55 = load ptr, ptr %8, align 8
  %56 = load i32, ptr %55, align 4
  %57 = add i32 %56, 5
  %58 = call ptr @proto_tree_add_item(ptr noundef %52, i32 noundef %53, ptr noundef %54, i32 noundef %57, i32 noundef 1, i32 noundef 0)
  %59 = load ptr, ptr %9, align 8
  %60 = load i32, ptr @hf_mysql_exec_field_minute, align 4
  %61 = load ptr, ptr %6, align 8
  %62 = load ptr, ptr %8, align 8
  %63 = load i32, ptr %62, align 4
  %64 = add i32 %63, 6
  %65 = call ptr @proto_tree_add_item(ptr noundef %59, i32 noundef %60, ptr noundef %61, i32 noundef %64, i32 noundef 1, i32 noundef 0)
  %66 = load ptr, ptr %9, align 8
  %67 = load i32, ptr @hf_mysql_exec_field_second, align 4
  %68 = load ptr, ptr %6, align 8
  %69 = load ptr, ptr %8, align 8
  %70 = load i32, ptr %69, align 4
  %71 = add i32 %70, 7
  %72 = call ptr @proto_tree_add_item(ptr noundef %66, i32 noundef %67, ptr noundef %68, i32 noundef %71, i32 noundef 1, i32 noundef 0)
  br label %73

73:                                               ; preds = %51, %47
  %74 = load i8, ptr %11, align 1
  %75 = zext i8 %74 to i32
  %76 = icmp sge i32 %75, 12
  br i1 %76, label %77, label %85

77:                                               ; preds = %73
  %78 = load ptr, ptr %9, align 8
  %79 = load i32, ptr @hf_mysql_exec_field_second_b, align 4
  %80 = load ptr, ptr %6, align 8
  %81 = load ptr, ptr %8, align 8
  %82 = load i32, ptr %81, align 4
  %83 = add i32 %82, 8
  %84 = call ptr @proto_tree_add_item(ptr noundef %78, i32 noundef %79, ptr noundef %80, i32 noundef %83, i32 noundef 4, i32 noundef -2147483648)
  br label %85

85:                                               ; preds = %77, %73
  %86 = load i8, ptr %11, align 1
  %87 = zext i8 %86 to i32
  %88 = load ptr, ptr %8, align 8
  %89 = load i32, ptr %88, align 4
  %90 = add i32 %89, %87
  store i32 %90, ptr %88, align 4
  call void @llvm.lifetime.end.p0(i64 1, ptr %11) #11
  ret void
}