; Function Attrs: null_pointer_is_valid sspstrong uwtable
define internal void @mysql_dissect_exec_time(ptr noundef %0, ptr readnone captures(none) %1, ptr noundef captures(none) %2, ptr noundef %3, i32 %4) #0 {
  %6 = load i32, ptr %2, align 4
  %7 = tail call zeroext i8 @tvb_get_uint8(ptr noundef %0, i32 noundef %6)
  %8 = load i32, ptr @hf_mysql_exec_field_time_length, align 4
  %9 = load i32, ptr %2, align 4
  %10 = tail call ptr @proto_tree_add_item(ptr noundef %3, i32 noundef %8, ptr noundef %0, i32 noundef %9, i32 noundef 1, i32 noundef 0)
  %11 = load i32, ptr %2, align 4
  %12 = add i32 %11, 1
  store i32 %12, ptr %2, align 4
  %.not = icmp eq i8 %7, 0
  br i1 %.not, label %.thread31, label %13

13:                                               ; preds = %5
  %14 = load i32, ptr @hf_mysql_exec_field_time_sign, align 4
  %15 = tail call ptr @proto_tree_add_item(ptr noundef %3, i32 noundef %14, ptr noundef %0, i32 noundef %12, i32 noundef 1, i32 noundef 0)
  %16 = icmp ugt i8 %7, 4
  %.pre32 = load i32, ptr %2, align 4
  br i1 %16, label %17, label %.thread31

17:                                               ; preds = %13
  %18 = load i32, ptr @hf_mysql_exec_field_time_days, align 4
  %19 = add i32 %.pre32, 1
  %20 = tail call ptr @proto_tree_add_item(ptr noundef %3, i32 noundef %18, ptr noundef %0, i32 noundef %19, i32 noundef 4, i32 noundef -2147483648)
  %21 = icmp ugt i8 %7, 7
  %.pre33 = load i32, ptr %2, align 4
  br i1 %21, label %22, label %.thread31

22:                                               ; preds = %17
  %23 = load i32, ptr @hf_mysql_exec_field_hour, align 4
  %24 = add i32 %.pre33, 5
  %25 = tail call ptr @proto_tree_add_item(ptr noundef %3, i32 noundef %23, ptr noundef %0, i32 noundef %24, i32 noundef 1, i32 noundef 0)
  %26 = load i32, ptr @hf_mysql_exec_field_minute, align 4
  %27 = load i32, ptr %2, align 4
  %28 = add i32 %27, 6
  %29 = tail call ptr @proto_tree_add_item(ptr noundef %3, i32 noundef %26, ptr noundef %0, i32 noundef %28, i32 noundef 1, i32 noundef 0)
  %30 = load i32, ptr @hf_mysql_exec_field_second, align 4
  %31 = load i32, ptr %2, align 4
  %32 = add i32 %31, 7
  %33 = tail call ptr @proto_tree_add_item(ptr noundef %3, i32 noundef %30, ptr noundef %0, i32 noundef %32, i32 noundef 1, i32 noundef 0)
  %34 = icmp ugt i8 %7, 11
  %.pre34 = load i32, ptr %2, align 4
  br i1 %34, label %35, label %.thread31

35:                                               ; preds = %22
  %36 = load i32, ptr @hf_mysql_exec_field_second_b, align 4
  %37 = add i32 %.pre34, 8
  %38 = tail call ptr @proto_tree_add_item(ptr noundef %3, i32 noundef %36, ptr noundef %0, i32 noundef %37, i32 noundef 4, i32 noundef -2147483648)
  %.pre = load i32, ptr %2, align 4
  br label %.thread31

.thread31:                                        ; preds = %5, %13, %17, %35, %22
  %39 = phi i32 [ %12, %5 ], [ %.pre32, %13 ], [ %.pre33, %17 ], [ %.pre, %35 ], [ %.pre34, %22 ]
  %40 = zext i8 %7 to i32
  %41 = add i32 %39, %40
  store i32 %41, ptr %2, align 4
  ret void
}